; ModuleID = 'bench/folly/original/ScopeGuard.ll'
source_filename = "bench/folly/original/ScopeGuard.ll"
target datalayout = "e-m:e-p270:32:32-p271:32:32-p272:64:64-i64:64-i128:128-f80:128-n8:16:32:64-S128"
target triple = "x86_64-pc-linux-gnu"

%"class.std::ios_base::Init" = type { i8 }
%"class.std::basic_ostream" = type { ptr, %"class.std::basic_ios" }
%"class.std::basic_ios" = type { %"class.std::ios_base", ptr, i8, i8, ptr, ptr, ptr, ptr }
%"class.std::ios_base" = type { ptr, i64, i64, i32, i32, i32, ptr, %"struct.std::ios_base::_Words", [8 x %"struct.std::ios_base::_Words"], i32, ptr, %"class.std::locale" }
%"struct.std::ios_base::_Words" = type { ptr, i64 }
%"class.std::locale" = type { ptr }
%"class.std::__exception_ptr::exception_ptr" = type { ptr }

$__clang_call_terminate = comdat any

@_ZStL8__ioinit = internal global %"class.std::ios_base::Init" zeroinitializer, align 1
@__dso_handle = external hidden global i8
@_ZSt4cerr = external global %"class.std::basic_ostream", align 8
@.str = private unnamed_addr constant [91 x i8] c"This program will now terminate because a folly::ScopeGuard callback threw an \0Aexception.\0A\00", align 1
@llvm.global_ctors = appending global [1 x { i32, ptr, ptr }] [{ i32, ptr, ptr } { i32 65535, ptr @_GLOBAL__sub_I_ScopeGuard.cpp, ptr null }]

declare void @_ZNSt8ios_base4InitC1Ev(ptr noundef nonnull align 1 dereferenceable(1)) unnamed_addr #0

; Function Attrs: nounwind
declare void @_ZNSt8ios_base4InitD1Ev(ptr noundef nonnull align 1 dereferenceable(1)) unnamed_addr #1

; Function Attrs: nofree nounwind
declare i32 @__cxa_atexit(ptr, ptr, ptr) local_unnamed_addr #2

; Function Attrs: mustprogress noreturn nounwind uwtable
define void @_ZN5folly6detail18ScopeGuardImplBase9terminateEv() local_unnamed_addr #3 align 2 personality ptr @__gxx_personality_v0 {
  %1 = alloca %"class.std::ios_base::Init", align 1
  %2 = alloca %"class.std::__exception_ptr::exception_ptr", align 8
  call void @llvm.lifetime.start.p0(i64 1, ptr nonnull %1) #9
  invoke void @_ZNSt8ios_base4InitC1Ev(ptr noundef nonnull align 1 dereferenceable(1) %1)
          to label %3 unwind label %6

3:                                                ; preds = %0
  %4 = invoke noundef nonnull align 8 dereferenceable(8) ptr @_ZSt16__ostream_insertIcSt11char_traitsIcEERSt13basic_ostreamIT_T0_ES6_PKS3_l(ptr noundef nonnull align 8 dereferenceable(8) @_ZSt4cerr, ptr noundef nonnull @.str, i64 noundef 90)
          to label %_ZStlsISt11char_traitsIcEERSt13basic_ostreamIcT_ES5_PKc.exit unwind label %6

_ZStlsISt11char_traitsIcEERSt13basic_ostreamIcT_ES5_PKc.exit: ; preds = %3
  call void @_ZN5folly17current_exceptionEv(ptr dead_on_unwind nonnull writable sret(%"class.std::__exception_ptr::exception_ptr") align 8 %2) #9
  invoke void @_ZSt17rethrow_exceptionNSt15__exception_ptr13exception_ptrE(ptr noundef nonnull %2) #10
          to label %5 unwind label %6

5:                                                ; preds = %_ZStlsISt11char_traitsIcEERSt13basic_ostreamIcT_ES5_PKc.exit
  unreachable

6:                                                ; preds = %3, %_ZStlsISt11char_traitsIcEERSt13basic_ostreamIcT_ES5_PKc.exit, %0
  %7 = landingpad { ptr, i32 }
          catch ptr null
  %8 = extractvalue { ptr, i32 } %7, 0
  call void @__clang_call_terminate(ptr %8) #11
  unreachable
}

; Function Attrs: mustprogress nocallback nofree nosync nounwind willreturn memory(argmem: readwrite)
declare void @llvm.lifetime.start.p0(i64 immarg, ptr captures(none)) #4

declare i32 @__gxx_personality_v0(...)

; Function Attrs: noinline noreturn nounwind uwtable
define linkonce_odr hidden void @__clang_call_terminate(ptr noundef %0) local_unnamed_addr #5 comdat {
  %2 = tail call ptr @__cxa_begin_catch(ptr %0) #9
  tail call void @_ZSt9terminatev() #11
  unreachable
}

declare ptr @__cxa_begin_catch(ptr) local_unnamed_addr

; Function Attrs: cold nofree noreturn
declare void @_ZSt9terminatev() local_unnamed_addr #6

; Function Attrs: noreturn
declare void @_ZSt17rethrow_exceptionNSt15__exception_ptr13exception_ptrE(ptr noundef) local_unnamed_addr #7

; Function Attrs: nounwind
declare void @_ZN5folly17current_exceptionEv(ptr dead_on_unwind writable sret(%"class.std::__exception_ptr::exception_ptr") align 8) local_unnamed_addr #1

declare noundef nonnull align 8 dereferenceable(8) ptr @_ZSt16__ostream_insertIcSt11char_traitsIcEERSt13basic_ostreamIT_T0_ES6_PKS3_l(ptr noundef nonnull align 8 dereferenceable(8), ptr noundef, i64 noundef) local_unnamed_addr #0

; Function Attrs: uwtable
define internal void @_GLOBAL__sub_I_ScopeGuard.cpp() #8 section ".text.startup" {
  tail call void @_ZNSt8ios_base4InitC1Ev(ptr noundef nonnull align 1 dereferenceable(1) @_ZStL8__ioinit)
  %1 = tail call i32 @__cxa_atexit(ptr nonnull @_ZNSt8ios_base4InitD1Ev, ptr nonnull @_ZStL8__ioinit, ptr nonnull @__dso_handle) #9
  ret void
}


!llvm.module.flags = !{!0, !1, !2, !3, !4, !5, !6}

!0 = !{i32 7, !"Dwarf Version", i32 5}
!1 = !{i32 2, !"Debug Info Version", i32 3}
!2 = !{i32 1, !"wchar_size", i32 4}
!3 = !{i32 7, !"openmp", i32 51}
!4 = !{i32 8, !"PIC Level", i32 2}
!5 = !{i32 7, !"uwtable", i32 2}
!6 = !{i32 7, !"debug-info-assignment-tracking", i1 true}
